(dp1
S'files'
p2
(dp3
S'_home_vanya_Projects_3course_arch1_lib_python2_7_site-packages_requests_packages_urllib3_contrib_pyopenssl'
p4
(dp5
S'index'
p6
(dp7
S'html_filename'
p8
S'_home_vanya_Projects_3course_arch1_lib_python2_7_site-packages_requests_packages_urllib3_contrib_pyopenssl.html'
p9
sS'name'
p10
S'/home/vanya/Projects/3course/arch1/lib/python2.7/site-packages/requests/packages/urllib3/contrib/pyopenssl'
p11
sS'nums'
p12
ccopy_reg
_reconstructor
p13
(ccoverage.results
Numbers
p14
c__builtin__
object
p15
NtRp16
(dp17
S'n_files'
p18
I1
sS'n_branches'
p19
I0
sS'n_statements'
p20
I146
sS'n_excluded'
p21
I0
sS'n_partial_branches'
p22
I0
sS'n_missing'
p23
I143
sS'n_missing_branches'
p24
I0
sbssS'hash'
p25
S'\xdb\xb8\xf3\x13 \x94\xcbW~{\x9c\xc6P\xbfY;'
p26
ssS'_home_vanya_Projects_3course_arch1_lib_python2_7_site-packages_gevent_timeout'
p27
(dp28
g6
(dp29
g8
S'_home_vanya_Projects_3course_arch1_lib_python2_7_site-packages_gevent_timeout.html'
p30
sg10
S'/home/vanya/Projects/3course/arch1/lib/python2.7/site-packages/gevent/timeout'
p31
sg12
g13
(g14
g15
NtRp32
(dp33
g18
I1
sg19
I0
sg20
I67
sg21
I0
sg22
I0
sg23
I40
sg24
I0
sbssg25
S'\x01\xcd\xa0\xde9\r\x8f%`\xce\x0f\xa1\xc6\x14\xef\x13'
p34
ssS'_home_vanya_Projects_3course_arch1_lib_python2_7_site-packages_gevent___init__'
p35
(dp36
g6
(dp37
g8
S'_home_vanya_Projects_3course_arch1_lib_python2_7_site-packages_gevent___init__.html'
p38
sg10
S'/home/vanya/Projects/3course/arch1/lib/python2.7/site-packages/gevent/__init__'
p39
sg12
g13
(g14
g15
NtRp40
(dp41
g18
I1
sg19
I0
sg20
I26
sg21
I0
sg22
I0
sg23
I8
sg24
I0
sbssg25
S'\t\xec\xa0\x84\xc6\xba\xe1m\x16\x9b\x90f\xc8Q\xdd\x1c'
p42
ssS'_home_vanya_Projects_3course_arch1_lib_python2_7_site-packages_requests_cookies'
p43
(dp44
g6
(dp45
g8
S'_home_vanya_Projects_3course_arch1_lib_python2_7_site-packages_requests_cookies.html'
p46
sg10
S'/home/vanya/Projects/3course/arch1/lib/python2.7/site-packages/requests/cookies'
p47
sg12
g13
(g14
g15
NtRp48
(dp49
g18
I1
sg19
I0
sg20
I213
sg21
I0
sg22
I0
sg23
I119
sg24
I0
sbssg25
S'\x9a);{/$\x1ep\xdei\x04\x01\x13\x84Td'
p50
ssS'_home_vanya_Projects_3course_arch1_lib_python2_7_site-packages_gevent_greenlet'
p51
(dp52
g6
(dp53
g8
S'_home_vanya_Projects_3course_arch1_lib_python2_7_site-packages_gevent_greenlet.html'
p54
sg10
S'/home/vanya/Projects/3course/arch1/lib/python2.7/site-packages/gevent/greenlet'
p55
sg12
g13
(g14
g15
NtRp56
(dp57
g18
I1
sg19
I0
sg20
I293
sg21
I0
sg22
I0
sg23
I187
sg24
I0
sbssg25
S'\xb2\xfdN\xb2\xb1z\x1f\x18!\x8d\xdc\x14\x1d\xad\x87\x9b'
p58
ssS'_home_vanya_Projects_3course_arch1_lib_python2_7_site-packages_requests_packages_urllib3_packages_six'
p59
(dp60
g6
(dp61
g8
S'_home_vanya_Projects_3course_arch1_lib_python2_7_site-packages_requests_packages_urllib3_packages_six.html'
p62
sg10
S'/home/vanya/Projects/3course/arch1/lib/python2.7/site-packages/requests/packages/urllib3/packages/six'
p63
sg12
g13
(g14
g15
NtRp64
(dp65
g18
I1
sg19
I0
sg20
I217
sg21
I0
sg22
I0
sg23
I113
sg24
I0
sbssg25
S'\x06\xb4/\x99\x8d\xe6\xfaJG\x1b\x07\xf6Pyl\xc6'
p66
ssS'_home_vanya_Projects_3course_arch1_lib_python2_7_site-packages_requests_models'
p67
(dp68
g6
(dp69
g8
S'_home_vanya_Projects_3course_arch1_lib_python2_7_site-packages_requests_models.html'
p70
sg10
S'/home/vanya/Projects/3course/arch1/lib/python2.7/site-packages/requests/models'
p71
sg12
g13
(g14
g15
NtRp72
(dp73
g18
I1
sg19
I0
sg20
I404
sg21
I0
sg22
I0
sg23
I182
sg24
I0
sbssg25
S'\x97\xbbq5\xcc\xd4{\xc3\xad\nS\xc8Z\xceEe'
p74
ssS'_home_vanya_Projects_3course_arch1_lib_python2_7_site-packages_gevent_lock'
p75
(dp76
g6
(dp77
g8
S'_home_vanya_Projects_3course_arch1_lib_python2_7_site-packages_gevent_lock.html'
p78
sg10
S'/home/vanya/Projects/3course/arch1/lib/python2.7/site-packages/gevent/lock'
p79
sg12
g13
(g14
g15
NtRp80
(dp81
g18
I1
sg19
I0
sg20
I73
sg21
I0
sg22
I0
sg23
I46
sg24
I0
sbssg25
S'\x98\x1ba\xfe\x84\xc9\xd8p\x80\x1c\xd4\xcb\x13\xa1O\r'
p82
ssS'_home_vanya_Projects_3course_arch1_lib_python2_7_site-packages_gevent_resolver_thread'
p83
(dp84
g6
(dp85
g8
S'_home_vanya_Projects_3course_arch1_lib_python2_7_site-packages_gevent_resolver_thread.html'
p86
sg10
S'/home/vanya/Projects/3course/arch1/lib/python2.7/site-packages/gevent/resolver_thread'
p87
sg12
g13
(g14
g15
NtRp88
(dp89
g18
I1
sg19
I0
sg20
I23
sg21
I0
sg22
I0
sg23
I7
sg24
I0
sbssg25
S'I\xe6\xf4\xe3#!\x1d\xfe\xdbzq\xbeiE>\xe3'
p90
ssS'_home_vanya_Projects_3course_arch1_lib_python2_7_site-packages_gevent_ssl'
p91
(dp92
g6
(dp93
g8
S'_home_vanya_Projects_3course_arch1_lib_python2_7_site-packages_gevent_ssl.html'
p94
sg10
S'/home/vanya/Projects/3course/arch1/lib/python2.7/site-packages/gevent/ssl'
p95
sg12
g13
(g14
g15
NtRp96
(dp97
g18
I1
sg19
I0
sg20
I8
sg21
I0
sg22
I0
sg23
I1
sg24
I0
sbssg25
S'\xe9\x1d\xc0\xb9\x01\x0b\xcfCx\xbf\x0b>\x14l\x9e~'
p98
ssS'_home_vanya_Projects_3course_arch1_lib_python2_7_site-packages_gevent_select'
p99
(dp100
g6
(dp101
g8
S'_home_vanya_Projects_3course_arch1_lib_python2_7_site-packages_gevent_select.html'
p102
sg10
S'/home/vanya/Projects/3course/arch1/lib/python2.7/site-packages/gevent/select'
p103
sg12
g13
(g14
g15
NtRp104
(dp105
g18
I1
sg19
I0
sg20
I52
sg21
I0
sg22
I0
sg23
I37
sg24
I0
sbssg25
S'8\xdb.\x01\xca\xe9g\xba\xdf\x07\xa9\xe2%\xe5`\xaa'
p106
ssS'_home_vanya_Projects_3course_arch1_lib_python2_7_site-packages_requests_packages_urllib3_packages_ssl_match_hostname___init__'
p107
(dp108
g6
(dp109
g8
S'_home_vanya_Projects_3course_arch1_lib_python2_7_site-packages_requests_packages_urllib3_packages_ssl_match_hostname___init__.html'
p110
sg10
S'/home/vanya/Projects/3course/arch1/lib/python2.7/site-packages/requests/packages/urllib3/packages/ssl_match_hostname/__init__'
p111
sg12
g13
(g14
g15
NtRp112
(dp113
g18
I1
sg19
I0
sg20
I8
sg21
I0
sg22
I0
sg23
I5
sg24
I0
sbssg25
S"\x96\xe2\xee\xfc\x80\x90\x18G^\xaa\xc6\x9b='p/"
p114
ssS'_home_vanya_Projects_3course_arch1_lib_python2_7_site-packages_gevent_os'
p115
(dp116
g6
(dp117
g8
S'_home_vanya_Projects_3course_arch1_lib_python2_7_site-packages_gevent_os.html'
p118
sg10
S'/home/vanya/Projects/3course/arch1/lib/python2.7/site-packages/gevent/os'
p119
sg12
g13
(g14
g15
NtRp120
(dp121
g18
I1
sg19
I0
sg20
I63
sg21
I0
sg22
I0
sg23
I39
sg24
I0
sbssg25
S'l5\xc2\xdc\x8c\xd4\xf1\xfa\x9f\xa5\x89\xe4\xcd\xe2\xbfS'
p122
ssS'_home_vanya_Projects_3course_arch1_lib_python2_7_site-packages_requests_packages_urllib3_poolmanager'
p123
(dp124
g6
(dp125
g8
S'_home_vanya_Projects_3course_arch1_lib_python2_7_site-packages_requests_packages_urllib3_poolmanager.html'
p126
sg10
S'/home/vanya/Projects/3course/arch1/lib/python2.7/site-packages/requests/packages/urllib3/poolmanager'
p127
sg12
g13
(g14
g15
NtRp128
(dp129
g18
I1
sg19
I0
sg20
I116
sg21
I0
sg22
I0
sg23
I61
sg24
I0
sbssg25
S'\xf8\xa0\xf6\x8e\x18\xe6\xa0\x9d%\xd8d\xcc\xa3{\xc8\x8e'
p130
ssS'_home_vanya_Projects_3course_arch1_lib_python2_7_site-packages_lxml_html___init__'
p131
(dp132
g6
(dp133
g8
S'_home_vanya_Projects_3course_arch1_lib_python2_7_site-packages_lxml_html___init__.html'
p134
sg10
S'/home/vanya/Projects/3course/arch1/lib/python2.7/site-packages/lxml/html/__init__'
p135
sg12
g13
(g14
g15
NtRp136
(dp137
g18
I1
sg19
I0
sg20
I857
sg21
I0
sg22
I0
sg23
I605
sg24
I0
sbssg25
S'D\xcb\xfe]Q\x0e\xaa\xa0;MW\x89%\x8c\xb2L'
p138
ssS'_home_vanya_Projects_3course_arch1_lib_python2_7_site-packages_gevent__socketcommon'
p139
(dp140
g6
(dp141
g8
S'_home_vanya_Projects_3course_arch1_lib_python2_7_site-packages_gevent__socketcommon.html'
p142
sg10
S'/home/vanya/Projects/3course/arch1/lib/python2.7/site-packages/gevent/_socketcommon'
p143
sg12
g13
(g14
g15
NtRp144
(dp145
g18
I1
sg19
I0
sg20
I95
sg21
I0
sg22
I0
sg23
I40
sg24
I0
sbssg25
S'*\xd3\xbb\xda\x0e\x12\x1a\x85\xc2U\xd0\x7f>\xbf\xb6('
p146
ssS'_home_vanya_Projects_3course_arch1_lib_python2_7_site-packages_gevent_pool'
p147
(dp148
g6
(dp149
g8
S'_home_vanya_Projects_3course_arch1_lib_python2_7_site-packages_gevent_pool.html'
p150
sg10
S'/home/vanya/Projects/3course/arch1/lib/python2.7/site-packages/gevent/pool'
p151
sg12
g13
(g14
g15
NtRp152
(dp153
g18
I1
sg19
I0
sg20
I294
sg21
I0
sg22
I0
sg23
I226
sg24
I0
sbssg25
S'WvK\xa3MOkw|\x89\x89/\x06q\xc5@'
p154
ssS'_home_vanya_Projects_3course_arch1_lib_python2_7_site-packages_requests_packages_urllib3_filepost'
p155
(dp156
g6
(dp157
g8
S'_home_vanya_Projects_3course_arch1_lib_python2_7_site-packages_requests_packages_urllib3_filepost.html'
p158
sg10
S'/home/vanya/Projects/3course/arch1/lib/python2.7/site-packages/requests/packages/urllib3/filepost'
p159
sg12
g13
(g14
g15
NtRp160
(dp161
g18
I1
sg19
I0
sg20
I38
sg21
I0
sg22
I0
sg23
I27
sg24
I0
sbssg25
S'\x82\x9c\x03\xa4\xb6\xef\xea\x91\x97\x99VE\xa6\xcc\x8d\t'
p162
ssS'_home_vanya_Projects_3course_arch1_lib_python2_7_site-packages_gevent_hub'
p163
(dp164
g6
(dp165
g8
S'_home_vanya_Projects_3course_arch1_lib_python2_7_site-packages_gevent_hub.html'
p166
sg10
S'/home/vanya/Projects/3course/arch1/lib/python2.7/site-packages/gevent/hub'
p167
sg12
g13
(g14
g15
NtRp168
(dp169
g18
I1
sg19
I0
sg20
I427
sg21
I0
sg22
I0
sg23
I198
sg24
I0
sbssg25
S'H\xbb%\x00\xc4\xba\x822\x87\xd1\xf4o\xc2f\x7fK'
p170
ssS'_home_vanya_Projects_3course_arch1_lib_python2_7_site-packages_requests_status_codes'
p171
(dp172
g6
(dp173
g8
S'_home_vanya_Projects_3course_arch1_lib_python2_7_site-packages_requests_status_codes.html'
p174
sg10
S'/home/vanya/Projects/3course/arch1/lib/python2.7/site-packages/requests/status_codes'
p175
sg12
g13
(g14
g15
NtRp176
(dp177
g18
I1
sg19
I0
sg20
I8
sg21
I0
sg22
I0
sg23
I0
sg24
I0
sbssg25
S'\x1d\xfc-9_\x907w\x8eXP\xb4\x9c\xaf\x1a\xfb'
p178
ssS'_home_vanya_Projects_3course_arch1_lib_python2_7_site-packages_requests_certs'
p179
(dp180
g6
(dp181
g8
S'_home_vanya_Projects_3course_arch1_lib_python2_7_site-packages_requests_certs.html'
p182
sg10
S'/home/vanya/Projects/3course/arch1/lib/python2.7/site-packages/requests/certs'
p183
sg12
g13
(g14
g15
NtRp184
(dp185
g18
I1
sg19
I0
sg20
I9
sg21
I0
sg22
I0
sg23
I1
sg24
I0
sbssg25
S'\x86\xf6\xe8\x99\x1b\x91\xb9\x10O1ay\xad\xd7\x1a\x8f'
p186
ssS'_home_vanya_Projects_3course_arch1_lib_python2_7_site-packages_gevent__socket2'
p187
(dp188
g6
(dp189
g8
S'_home_vanya_Projects_3course_arch1_lib_python2_7_site-packages_gevent__socket2.html'
p190
sg10
S'/home/vanya/Projects/3course/arch1/lib/python2.7/site-packages/gevent/_socket2'
p191
sg12
g13
(g14
g15
NtRp192
(dp193
g18
I1
sg19
I0
sg20
I301
sg21
I0
sg22
I0
sg23
I168
sg24
I0
sbssg25
S'E$\xd6\x92o\xf7q\x13\t\xb0g\xddd\xacMR'
p194
ssS'_home_vanya_Projects_3course_arch1_lib_python2_7_site-packages_gevent_local'
p195
(dp196
g6
(dp197
g8
S'_home_vanya_Projects_3course_arch1_lib_python2_7_site-packages_gevent_local.html'
p198
sg10
S'/home/vanya/Projects/3course/arch1/lib/python2.7/site-packages/gevent/local'
p199
sg12
g13
(g14
g15
NtRp200
(dp201
g18
I1
sg19
I0
sg20
I77
sg21
I0
sg22
I0
sg23
I63
sg24
I0
sbssg25
S'KX7\xccAs=8\x19\xbc,\x9a\xed_\n+'
p202
ssS'_home_vanya_Projects_3course_arch1_lib_python2_7_site-packages_requests_packages_chardet___init__'
p203
(dp204
g6
(dp205
g8
S'_home_vanya_Projects_3course_arch1_lib_python2_7_site-packages_requests_packages_chardet___init__.html'
p206
sg10
S'/home/vanya/Projects/3course/arch1/lib/python2.7/site-packages/requests/packages/chardet/__init__'
p207
sg12
g13
(g14
g15
NtRp208
(dp209
g18
I1
sg19
I0
sg20
I11
sg21
I0
sg22
I0
sg23
I8
sg24
I0
sbssg25
S'\xaa\xf8\xb0\xef\x88H\xd1\xb4fO+\xb4\x93\x1c\\%'
p210
ssS'_home_vanya_Projects_3course_arch1_lib_python2_7_site-packages_requests_packages_urllib3_request'
p211
(dp212
g6
(dp213
g8
S'_home_vanya_Projects_3course_arch1_lib_python2_7_site-packages_requests_packages_urllib3_request.html'
p214
sg10
S'/home/vanya/Projects/3course/arch1/lib/python2.7/site-packages/requests/packages/urllib3/request'
p215
sg12
g13
(g14
g15
NtRp216
(dp217
g18
I1
sg19
I0
sg20
I36
sg21
I0
sg22
I0
sg23
I22
sg24
I0
sbssg25
S'\x96]w\x1es\xf4\xbf\xcd\x08\x13\xb3|\xec\x90\x91\x8e'
p218
ssS'_home_vanya_Projects_3course_arch1_lib_python2_7_site-packages_requests_packages_urllib3_packages_ordered_dict'
p219
(dp220
g6
(dp221
g8
S'_home_vanya_Projects_3course_arch1_lib_python2_7_site-packages_requests_packages_urllib3_packages_ordered_dict.html'
p222
sg10
S'/home/vanya/Projects/3course/arch1/lib/python2.7/site-packages/requests/packages/urllib3/packages/ordered_dict'
p223
sg12
g13
(g14
g15
NtRp224
(dp225
g18
I1
sg19
I0
sg20
I155
sg21
I0
sg22
I0
sg23
I92
sg24
I0
sbssg25
S'\n\xeb.o\xb44\xf46\xc3\xe6\xc5\x0c\xb1\x08\x8e\xe7'
p226
ssS'_home_vanya_Projects_3course_arch1_lib_python2_7_site-packages_gevent_threading'
p227
(dp228
g6
(dp229
g8
S'_home_vanya_Projects_3course_arch1_lib_python2_7_site-packages_gevent_threading.html'
p230
sg10
S'/home/vanya/Projects/3course/arch1/lib/python2.7/site-packages/gevent/threading'
p231
sg12
g13
(g14
g15
NtRp232
(dp233
g18
I1
sg19
I0
sg20
I19
sg21
I0
sg22
I0
sg23
I7
sg24
I0
sbssg25
S"\x85+;\xeb'\xde\x06\x97\x01:\xc1\x1d_\x1f\x01e"
p234
ssS'_home_vanya_Projects_3course_arch1_lib_python2_7_site-packages_gevent_socket'
p235
(dp236
g6
(dp237
g8
S'_home_vanya_Projects_3course_arch1_lib_python2_7_site-packages_gevent_socket.html'
p238
sg10
S'/home/vanya/Projects/3course/arch1/lib/python2.7/site-packages/gevent/socket'
p239
sg12
g13
(g14
g15
NtRp240
(dp241
g18
I1
sg19
I0
sg20
I37
sg21
I0
sg22
I0
sg23
I25
sg24
I0
sbssg25
S"\xdf\xb2'4DB\x10\x1e*d\xf9oF\xe7Py"
p242
ssS'_home_vanya_Projects_3course_arch1_lib_python2_7_site-packages_requests_api'
p243
(dp244
g6
(dp245
g8
S'_home_vanya_Projects_3course_arch1_lib_python2_7_site-packages_requests_api.html'
p246
sg10
S'/home/vanya/Projects/3course/arch1/lib/python2.7/site-packages/requests/api'
p247
sg12
g13
(g14
g15
NtRp248
(dp249
g18
I1
sg19
I0
sg20
I24
sg21
I0
sg22
I0
sg23
I8
sg24
I0
sbssg25
S'\xa7\xd3\xb8\xc8\xbb\x8cgr_\x8d\x99\x06*)N\xf9'
p250
ssS'_home_vanya_Projects_3course_arch1_lib_python2_7_site-packages_requests_compat'
p251
(dp252
g6
(dp253
g8
S'_home_vanya_Projects_3course_arch1_lib_python2_7_site-packages_requests_compat.html'
p254
sg10
S'/home/vanya/Projects/3course/arch1/lib/python2.7/site-packages/requests/compat'
p255
sg12
g13
(g14
g15
NtRp256
(dp257
g18
I1
sg19
I0
sg20
I35
sg21
I0
sg22
I0
sg23
I12
sg24
I0
sbssg25
S'\xd6\x0e\xca`\x048\t8bi\xfd\xaf\xdc\x87\xd4,'
p258
ssS'_home_vanya_Projects_3course_arch1_lib_python2_7_site-packages_requests_packages_urllib3_packages___init__'
p259
(dp260
g6
(dp261
g8
S'_home_vanya_Projects_3course_arch1_lib_python2_7_site-packages_requests_packages_urllib3_packages___init__.html'
p262
sg10
S'/home/vanya/Projects/3course/arch1/lib/python2.7/site-packages/requests/packages/urllib3/packages/__init__'
p263
sg12
g13
(g14
g15
NtRp264
(dp265
g18
I1
sg19
I0
sg20
I2
sg21
I0
sg22
I0
sg23
I0
sg24
I0
sbssg25
S'm\xe6C\xc6\x82|\xf7\xbc\xe7R\xb6\xe3\x03Bg\x11'
p266
ssS'mainPy'
p267
(dp268
g6
(dp269
g8
S'mainPy.html'
p270
sg10
g267
sg12
g13
(g14
g15
NtRp271
(dp272
g18
I1
sg19
I0
sg20
I89
sg21
I0
sg22
I0
sg23
I12
sg24
I0
sbssg25
S'\xf9\x042\xc8\x8aH!\xa44\x7f\xb3,\x92\xc8\x9b\xb5'
p273
ssS'_home_vanya_Projects_3course_arch1_lib_python2_7_site-packages_requests_packages_urllib3__collections'
p274
(dp275
g6
(dp276
g8
S'_home_vanya_Projects_3course_arch1_lib_python2_7_site-packages_requests_packages_urllib3__collections.html'
p277
sg10
S'/home/vanya/Projects/3course/arch1/lib/python2.7/site-packages/requests/packages/urllib3/_collections'
p278
sg12
g13
(g14
g15
NtRp279
(dp280
g18
I1
sg19
I0
sg20
I175
sg21
I0
sg22
I0
sg23
I69
sg24
I0
sbssg25
S'\xcce{uJ1U~v\xd3U\\%|\xa6\xcf'
p281
ssS'_home_vanya_Projects_3course_arch1_lib_python2_7_site-packages_lxml___init__'
p282
(dp283
g6
(dp284
g8
S'_home_vanya_Projects_3course_arch1_lib_python2_7_site-packages_lxml___init__.html'
p285
sg10
S'/home/vanya/Projects/3course/arch1/lib/python2.7/site-packages/lxml/__init__'
p286
sg12
g13
(g14
g15
NtRp287
(dp288
g18
I1
sg19
I0
sg20
I10
sg21
I0
sg22
I0
sg23
I9
sg24
I0
sbssg25
S':a\xf1\x1a\xce\x81\t\xc7\x9c}\xe9g\xa5 \x11\\'
p289
ssS'_home_vanya_Projects_3course_arch1_lib_python2_7_site-packages_requests_adapters'
p290
(dp291
g6
(dp292
g8
S'_home_vanya_Projects_3course_arch1_lib_python2_7_site-packages_requests_adapters.html'
p293
sg10
S'/home/vanya/Projects/3course/arch1/lib/python2.7/site-packages/requests/adapters'
p294
sg12
g13
(g14
g15
NtRp295
(dp296
g18
I1
sg19
I0
sg20
I177
sg21
I0
sg22
I0
sg23
I71
sg24
I0
sbssg25
S'\xe7&\xe7\xeap\x1f\x90\x15\xa3@t\x12{(\xfc\xa6'
p297
ssS'_home_vanya_Projects_3course_arch1_lib_python2_7_site-packages_requests_hooks'
p298
(dp299
g6
(dp300
g8
S'_home_vanya_Projects_3course_arch1_lib_python2_7_site-packages_requests_hooks.html'
p301
sg10
S'/home/vanya/Projects/3course/arch1/lib/python2.7/site-packages/requests/hooks'
p302
sg12
g13
(g14
g15
NtRp303
(dp304
g18
I1
sg19
I0
sg20
I18
sg21
I0
sg22
I0
sg23
I4
sg24
I0
sbssg25
S'\xad\xdc4\x1eB\xae\xcb\x8f\x08\t\x01\xee\xa1\x7f\xf0B'
p305
ssS'_home_vanya_Projects_3course_arch1_lib_python2_7_site-packages_gevent_thread'
p306
(dp307
g6
(dp308
g8
S'_home_vanya_Projects_3course_arch1_lib_python2_7_site-packages_gevent_thread.html'
p309
sg10
S'/home/vanya/Projects/3course/arch1/lib/python2.7/site-packages/gevent/thread'
p310
sg12
g13
(g14
g15
NtRp311
(dp312
g18
I1
sg19
I0
sg20
I34
sg21
I0
sg22
I0
sg23
I12
sg24
I0
sbssg25
S'\xdb\xa6\x1f\xa7\xf7!Y\xaa\xb9\xb8\xc8C\x8b3\x8c\xf9'
p313
ssS'_home_vanya_Projects_3course_arch1_lib_python2_7_site-packages_gevent__threading'
p314
(dp315
g6
(dp316
g8
S'_home_vanya_Projects_3course_arch1_lib_python2_7_site-packages_gevent__threading.html'
p317
sg10
S'/home/vanya/Projects/3course/arch1/lib/python2.7/site-packages/gevent/_threading'
p318
sg12
g13
(g14
g15
NtRp319
(dp320
g18
I1
sg19
I0
sg20
I306
sg21
I0
sg22
I0
sg23
I190
sg24
I0
sbssg25
S'1\x96\xdf\xf9\x1d\xcd\x81\x9e\x88pX\xf8\x02Q$\xa5'
p321
ssS'_home_vanya_Projects_3course_arch1_lib_python2_7_site-packages_requests_utils'
p322
(dp323
g6
(dp324
g8
S'_home_vanya_Projects_3course_arch1_lib_python2_7_site-packages_requests_utils.html'
p325
sg10
S'/home/vanya/Projects/3course/arch1/lib/python2.7/site-packages/requests/utils'
p326
sg12
g13
(g14
g15
NtRp327
(dp328
g18
I1
sg19
I0
sg20
I329
sg21
I0
sg22
I0
sg23
I213
sg24
I0
sbssg25
S'\xc3J\xa4\xd7\xa6\xba\xe3Scy\x866\x8d-\xd1\x02'
p329
ssS'_home_vanya_Projects_3course_arch1_lib_python2_7_site-packages_gevent__util_py2'
p330
(dp331
g6
(dp332
g8
S'_home_vanya_Projects_3course_arch1_lib_python2_7_site-packages_gevent__util_py2.html'
p333
sg10
S'/home/vanya/Projects/3course/arch1/lib/python2.7/site-packages/gevent/_util_py2'
p334
sg12
g13
(g14
g15
NtRp335
(dp336
g18
I1
sg19
I0
sg20
I3
sg21
I0
sg22
I0
sg23
I1
sg24
I0
sbssg25
S'H\xd8\x13\x03\xf6EoJFQx\x1fB\t\x8b\xf5'
p337
ssS'_home_vanya_Projects_3course_arch1_lib_python2_7_site-packages_requests_packages_urllib3_util_connection'
p338
(dp339
g6
(dp340
g8
S'_home_vanya_Projects_3course_arch1_lib_python2_7_site-packages_requests_packages_urllib3_util_connection.html'
p341
sg10
S'/home/vanya/Projects/3course/arch1/lib/python2.7/site-packages/requests/packages/urllib3/util/connection'
p342
sg12
g13
(g14
g15
NtRp343
(dp344
g18
I1
sg19
I0
sg20
I55
sg21
I0
sg22
I0
sg23
I33
sg24
I0
sbssg25
S'U\xf0\x86\xd4z\x08e\xd2\xc55%\x19_b\xee\x1d'
p345
ssS'_home_vanya_Projects_3course_arch1_lib_python2_7_site-packages_requests_packages_urllib3_connectionpool'
p346
(dp347
g6
(dp348
g8
S'_home_vanya_Projects_3course_arch1_lib_python2_7_site-packages_requests_packages_urllib3_connectionpool.html'
p349
sg10
S'/home/vanya/Projects/3course/arch1/lib/python2.7/site-packages/requests/packages/urllib3/connectionpool'
p350
sg12
g13
(g14
g15
NtRp351
(dp352
g18
I1
sg19
I0
sg20
I280
sg21
I0
sg22
I0
sg23
I96
sg24
I0
sbssg25
S'\t^\x8a\xf0\x1b~,/\xd3\xfd@/\xe7L\xd9\x1c'
p353
ssS'_home_vanya_Projects_3course_arch1_lib_python2_7_site-packages_gevent_event'
p354
(dp355
g6
(dp356
g8
S'_home_vanya_Projects_3course_arch1_lib_python2_7_site-packages_gevent_event.html'
p357
sg10
S'/home/vanya/Projects/3course/arch1/lib/python2.7/site-packages/gevent/event'
p358
sg12
g13
(g14
g15
NtRp359
(dp360
g18
I1
sg19
I0
sg20
I163
sg21
I0
sg22
I0
sg23
I96
sg24
I0
sbssg25
S'\\\xca\x9bA@B\xa6\x8f\x0f=*\xec\x93\xaf+Q'
p361
ssS'_home_vanya_Projects_3course_arch1_lib_python2_7_site-packages_requests_packages_urllib3_response'
p362
(dp363
g6
(dp364
g8
S'_home_vanya_Projects_3course_arch1_lib_python2_7_site-packages_requests_packages_urllib3_response.html'
p365
sg10
S'/home/vanya/Projects/3course/arch1/lib/python2.7/site-packages/requests/packages/urllib3/response'
p366
sg12
g13
(g14
g15
NtRp367
(dp368
g18
I1
sg19
I0
sg20
I171
sg21
I0
sg22
I0
sg23
I71
sg24
I0
sbssg25
S'}\xd3\x9a\xa6\xe60\x81y\xe1\x8f\xefm\xd8\x8f\xc4 '
p369
ssS'_home_vanya_Projects_3course_arch1_lib_python2_7_site-packages_requests_packages_urllib3_util_ssl_'
p370
(dp371
g6
(dp372
g8
S'_home_vanya_Projects_3course_arch1_lib_python2_7_site-packages_requests_packages_urllib3_util_ssl_.html'
p373
sg10
S'/home/vanya/Projects/3course/arch1/lib/python2.7/site-packages/requests/packages/urllib3/util/ssl_'
p374
sg12
g13
(g14
g15
NtRp375
(dp376
g18
I1
sg19
I0
sg20
I112
sg21
I0
sg22
I0
sg23
I33
sg24
I0
sbssg25
S'\xd4\x189\xfe\xbb+[]\xcb\xb4M\x11\xb4]B/'
p377
ssS'_home_vanya_Projects_3course_arch1_lib_python2_7_site-packages_requests_packages_urllib3_util_retry'
p378
(dp379
g6
(dp380
g8
S'_home_vanya_Projects_3course_arch1_lib_python2_7_site-packages_requests_packages_urllib3_util_retry.html'
p381
sg10
S'/home/vanya/Projects/3course/arch1/lib/python2.7/site-packages/requests/packages/urllib3/util/retry'
p382
sg12
g13
(g14
g15
NtRp383
(dp384
g18
I1
sg19
I0
sg20
I98
sg21
I0
sg22
I0
sg23
I65
sg24
I0
sbssg25
S'\x88\xff\x12\x1f\xa2\xe0\xbdW\xff\x95\xa3\xa2k\x10\xe4\xab'
p385
ssS'_home_vanya_Projects_3course_arch1_lib_python2_7_site-packages_requests_structures'
p386
(dp387
g6
(dp388
g8
S'_home_vanya_Projects_3course_arch1_lib_python2_7_site-packages_requests_structures.html'
p389
sg10
S'/home/vanya/Projects/3course/arch1/lib/python2.7/site-packages/requests/structures'
p390
sg12
g13
(g14
g15
NtRp391
(dp392
g18
I1
sg19
I0
sg20
I39
sg21
I0
sg22
I0
sg23
I10
sg24
I0
sbssg25
S'\x8d>\x80\xe6\x81r`\xcc]\xe2\x86\xfa\x80\xe0J\xd2'
p393
ssS'_home_vanya_Projects_3course_arch1_lib_python2_7_site-packages_requests_packages_urllib3_fields'
p394
(dp395
g6
(dp396
g8
S'_home_vanya_Projects_3course_arch1_lib_python2_7_site-packages_requests_packages_urllib3_fields.html'
p397
sg10
S'/home/vanya/Projects/3course/arch1/lib/python2.7/site-packages/requests/packages/urllib3/fields'
p398
sg12
g13
(g14
g15
NtRp399
(dp400
g18
I1
sg19
I0
sg20
I68
sg21
I0
sg22
I0
sg23
I56
sg24
I0
sbssg25
S')\x88d\x848k\xf1e\x88\xff\xc7\xfd\xb7\xcc\xe88'
p401
ssS'_home_vanya_Projects_3course_arch1_lib_python2_7_site-packages_requests_exceptions'
p402
(dp403
g6
(dp404
g8
S'_home_vanya_Projects_3course_arch1_lib_python2_7_site-packages_requests_exceptions.html'
p405
sg10
S'/home/vanya/Projects/3course/arch1/lib/python2.7/site-packages/requests/exceptions'
p406
sg12
g13
(g14
g15
NtRp407
(dp408
g18
I1
sg19
I0
sg20
I26
sg21
I0
sg22
I0
sg23
I6
sg24
I0
sbssg25
S'\x06S1\xe3L\xaa\xe2\xf8\xbe\xec\xc6\x10\xbdg\xc1\x9a'
p409
ssS'test'
p410
(dp411
g6
(dp412
g8
S'test.html'
p413
sg10
g410
sg12
g13
(g14
g15
NtRp414
(dp415
g18
I1
sg19
I0
sg20
I19
sg21
I0
sg22
I0
sg23
I1
sg24
I0
sbssg25
S'T\xa9P\x1c\xafh\xd4\xa9 \x17\x123\xaa\x99[\xd8'
p416
ssS'_home_vanya_Projects_3course_arch1_lib_python2_7_site-packages_requests_auth'
p417
(dp418
g6
(dp419
g8
S'_home_vanya_Projects_3course_arch1_lib_python2_7_site-packages_requests_auth.html'
p420
sg10
S'/home/vanya/Projects/3course/arch1/lib/python2.7/site-packages/requests/auth'
p421
sg12
g13
(g14
g15
NtRp422
(dp423
g18
I1
sg19
I0
sg20
I133
sg21
I0
sg22
I0
sg23
I107
sg24
I0
sbssg25
S':\x83\xde\xb6\xb0\xb4\x96\xa3\xca\xaa^\xe9\xf4\x936)'
p424
ssS'_home_vanya_Projects_3course_arch1_lib_python2_7_site-packages_requests_packages_urllib3_connection'
p425
(dp426
g6
(dp427
g8
S'_home_vanya_Projects_3course_arch1_lib_python2_7_site-packages_requests_packages_urllib3_connection.html'
p428
sg10
S'/home/vanya/Projects/3course/arch1/lib/python2.7/site-packages/requests/packages/urllib3/connection'
p429
sg12
g13
(g14
g15
NtRp430
(dp431
g18
I1
sg19
I0
sg20
I110
sg21
I0
sg22
I0
sg23
I20
sg24
I0
sbssg25
S'x\xfa\xe2\xb7\xf7\xcaF.\xe3\x8cEY\xa0\xff\x9bW'
p432
ssS'_home_vanya_Projects_3course_arch1_lib_python2_7_site-packages_requests_packages___init__'
p433
(dp434
g6
(dp435
g8
S'_home_vanya_Projects_3course_arch1_lib_python2_7_site-packages_requests_packages___init__.html'
p436
sg10
S'/home/vanya/Projects/3course/arch1/lib/python2.7/site-packages/requests/packages/__init__'
p437
sg12
g13
(g14
g15
NtRp438
(dp439
g18
I1
sg19
I0
sg20
I34
sg21
I0
sg22
I0
sg23
I5
sg24
I0
sbssg25
S'\xfc\xe5_\x07$\xd1\x8f\x93d5#\xec\xf22\xd4\xa2'
p440
ssS'_home_vanya_Projects_3course_arch1_lib_python2_7_site-packages_gevent_monkey'
p441
(dp442
g6
(dp443
g8
S'_home_vanya_Projects_3course_arch1_lib_python2_7_site-packages_gevent_monkey.html'
p444
sg10
S'/home/vanya/Projects/3course/arch1/lib/python2.7/site-packages/gevent/monkey'
p445
sg12
g13
(g14
g15
NtRp446
(dp447
g18
I1
sg19
I0
sg20
I158
sg21
I0
sg22
I0
sg23
I61
sg24
I0
sbssg25
S'\x19h\xe0b\xcc\x8e_e\xf9\xe8E\x02\x89\xd4\x92]'
p448
ssS'_home_vanya_Projects_3course_arch1_lib_python2_7_site-packages_requests_packages_urllib3_exceptions'
p449
(dp450
g6
(dp451
g8
S'_home_vanya_Projects_3course_arch1_lib_python2_7_site-packages_requests_packages_urllib3_exceptions.html'
p452
sg10
S'/home/vanya/Projects/3course/arch1/lib/python2.7/site-packages/requests/packages/urllib3/exceptions'
p453
sg12
g13
(g14
g15
NtRp454
(dp455
g18
I1
sg19
I0
sg20
I63
sg21
I0
sg22
I0
sg23
I15
sg24
I0
sbssg25
S'\xcb`r\xa6\xdb\x1f+\x8ff\x84\r\x90\xc9*\x98_'
p456
ssS'_home_vanya_Projects_3course_arch1_lib_python2_7_site-packages_requests_sessions'
p457
(dp458
g6
(dp459
g8
S'_home_vanya_Projects_3course_arch1_lib_python2_7_site-packages_requests_sessions.html'
p460
sg10
S'/home/vanya/Projects/3course/arch1/lib/python2.7/site-packages/requests/sessions'
p461
sg12
g13
(g14
g15
NtRp462
(dp463
g18
I1
sg19
I0
sg20
I262
sg21
I0
sg22
I0
sg23
I63
sg24
I0
sbssg25
S'7\xe3wj<\x0f\x1c\x96\xbc\xbc\xd8\xc8\xd8\xa9I\xdc'
p464
ssS'_home_vanya_Projects_3course_arch1_lib_python2_7_site-packages_requests_packages_urllib3___init__'
p465
(dp466
g6
(dp467
g8
S'_home_vanya_Projects_3course_arch1_lib_python2_7_site-packages_requests_packages_urllib3___init__.html'
p468
sg10
S'/home/vanya/Projects/3course/arch1/lib/python2.7/site-packages/requests/packages/urllib3/__init__'
p469
sg12
g13
(g14
g15
NtRp470
(dp471
g18
I1
sg19
I0
sg20
I33
sg21
I0
sg22
I0
sg23
I12
sg24
I0
sbssg25
S'\x91\xe2?*\xb9Q\xab\x97\x07L\xa1s\xe5\xb1\xfcq'
p472
ssS'_home_vanya_Projects_3course_arch1_lib_python2_7_site-packages_requests_packages_urllib3_util_timeout'
p473
(dp474
g6
(dp475
g8
S'_home_vanya_Projects_3course_arch1_lib_python2_7_site-packages_requests_packages_urllib3_util_timeout.html'
p476
sg10
S'/home/vanya/Projects/3course/arch1/lib/python2.7/site-packages/requests/packages/urllib3/util/timeout'
p477
sg12
g13
(g14
g15
NtRp478
(dp479
g18
I1
sg19
I0
sg20
I57
sg21
I0
sg22
I0
sg23
I23
sg24
I0
sbssg25
S'\x82\x842\xa0\x18Y\x1a]>\xe66p\xd8:z)'
p480
ssS'_home_vanya_Projects_3course_arch1_lib_python2_7_site-packages_lxml__elementpath'
p481
(dp482
g6
(dp483
g8
S'_home_vanya_Projects_3course_arch1_lib_python2_7_site-packages_lxml__elementpath.html'
p484
sg10
S'/home/vanya/Projects/3course/arch1/lib/python2.7/site-packages/lxml/_elementpath'
p485
sg12
g13
(g14
g15
NtRp486
(dp487
g18
I1
sg19
I0
sg20
I182
sg21
I0
sg22
I0
sg23
I128
sg24
I0
sbssg25
S'W\x15\xa0\xc2H\xa2Tm\x06\xc8\xf1\xf0\xa8&\x04&'
p488
ssS'_home_vanya_Projects_3course_arch1_lib_python2_7_site-packages_requests_packages_urllib3_util_request'
p489
(dp490
g6
(dp491
g8
S'_home_vanya_Projects_3course_arch1_lib_python2_7_site-packages_requests_packages_urllib3_util_request.html'
p492
sg10
S'/home/vanya/Projects/3course/arch1/lib/python2.7/site-packages/requests/packages/urllib3/util/request'
p493
sg12
g13
(g14
g15
NtRp494
(dp495
g18
I1
sg19
I0
sg20
I23
sg21
I0
sg22
I0
sg23
I19
sg24
I0
sbssg25
S'\xa7\xd4x\xc4\x84Zs3uqQ\x8f\xdd\xe1t\xcc'
p496
ssS'_home_vanya_Projects_3course_arch1_lib_python2_7_site-packages_requests_packages_urllib3_util___init__'
p497
(dp498
g6
(dp499
g8
S'_home_vanya_Projects_3course_arch1_lib_python2_7_site-packages_requests_packages_urllib3_util___init__.html'
p500
sg10
S'/home/vanya/Projects/3course/arch1/lib/python2.7/site-packages/requests/packages/urllib3/util/__init__'
p501
sg12
g13
(g14
g15
NtRp502
(dp503
g18
I1
sg19
I0
sg20
I7
sg21
I0
sg22
I0
sg23
I0
sg24
I0
sbssg25
S'\x92!\xfd\x00\xa5S\xbf\x93\x83\xf3\x195\xa6+\xa1r'
p504
ssS'timer'
p505
(dp506
g6
(dp507
g8
S'timer.html'
p508
sg10
g505
sg12
g13
(g14
g15
NtRp509
(dp510
g18
I1
sg19
I0
sg20
I9
sg21
I0
sg22
I0
sg23
I0
sg24
I0
sbssg25
S'\x96\xfd.$yKL\x95E:\x95\x0f\xea\xf6\xf3R'
p511
ssS'_home_vanya_Projects_3course_arch1_lib_python2_7_site-packages_requests_packages_urllib3_util_response'
p512
(dp513
g6
(dp514
g8
S'_home_vanya_Projects_3course_arch1_lib_python2_7_site-packages_requests_packages_urllib3_util_response.html'
p515
sg10
S'/home/vanya/Projects/3course/arch1/lib/python2.7/site-packages/requests/packages/urllib3/util/response'
p516
sg12
g13
(g14
g15
NtRp517
(dp518
g18
I1
sg19
I0
sg20
I10
sg21
I0
sg22
I0
sg23
I3
sg24
I0
sbssg25
S'\x0b<\x7f\xffY\x05`\x96\x92\xa05\xd0\t\xe3\xe3\x1e'
p519
ssS'_home_vanya_Projects_3course_arch1_lib_python2_7_site-packages_requests_packages_urllib3_contrib___init__'
p520
(dp521
g6
(dp522
g8
S'_home_vanya_Projects_3course_arch1_lib_python2_7_site-packages_requests_packages_urllib3_contrib___init__.html'
p523
sg10
S'/home/vanya/Projects/3course/arch1/lib/python2.7/site-packages/requests/packages/urllib3/contrib/__init__'
p524
sg12
g13
(g14
g15
NtRp525
(dp526
g18
I1
sg19
I0
sg20
I0
sg21
I0
sg22
I0
sg23
I0
sg24
I0
sbssg25
S'\xca\xf5\x9f\x7f\x88\xdfa\x831|T\x1d\xbc}\xa5v'
p527
ssS'_home_vanya_Projects_3course_arch1_lib_python2_7_site-packages_requests_packages_urllib3_util_url'
p528
(dp529
g6
(dp530
g8
S'_home_vanya_Projects_3course_arch1_lib_python2_7_site-packages_requests_packages_urllib3_util_url.html'
p531
sg10
S'/home/vanya/Projects/3course/arch1/lib/python2.7/site-packages/requests/packages/urllib3/util/url'
p532
sg12
g13
(g14
g15
NtRp533
(dp534
g18
I1
sg19
I0
sg20
I92
sg21
I0
sg22
I0
sg23
I42
sg24
I0
sbssg25
S'6y\xc2#)0,\xdb\xd6q\xf9H\xa8\xb7C\xf7'
p535
ssS'_home_vanya_Projects_3course_arch1_lib_python2_7_site-packages_gevent__ssl2'
p536
(dp537
g6
(dp538
g8
S'_home_vanya_Projects_3course_arch1_lib_python2_7_site-packages_gevent__ssl2.html'
p539
sg10
S'/home/vanya/Projects/3course/arch1/lib/python2.7/site-packages/gevent/_ssl2'
p540
sg12
g13
(g14
g15
NtRp541
(dp542
g18
I1
sg19
I0
sg20
I261
sg21
I0
sg22
I0
sg23
I152
sg24
I0
sbssg25
S'{\xdc0\x03\xd7\x0f\xf7\xbf\x1e\xf4\x87\x95\xda_+\xa9'
p543
ssS'_home_vanya_Projects_3course_arch1_lib_python2_7_site-packages_lxml_html_defs'
p544
(dp545
g6
(dp546
g8
S'_home_vanya_Projects_3course_arch1_lib_python2_7_site-packages_lxml_html_defs.html'
p547
sg10
S'/home/vanya/Projects/3course/arch1/lib/python2.7/site-packages/lxml/html/defs'
p548
sg12
g13
(g14
g15
NtRp549
(dp550
g18
I1
sg19
I0
sg20
I22
sg21
I0
sg22
I0
sg23
I2
sg24
I0
sbssg25
S'\xd9\xb3\xfa\x90\xd8\x85\xfd\xd3\xaa|X\xef\xd8o\xb1o'
p551
ssS'_home_vanya_Projects_3course_arch1_lib_python2_7_site-packages_lxml_html__setmixin'
p552
(dp553
g6
(dp554
g8
S'_home_vanya_Projects_3course_arch1_lib_python2_7_site-packages_lxml_html__setmixin.html'
p555
sg10
S'/home/vanya/Projects/3course/arch1/lib/python2.7/site-packages/lxml/html/_setmixin'
p556
sg12
g13
(g14
g15
NtRp557
(dp558
g18
I1
sg19
I0
sg20
I85
sg21
I0
sg22
I0
sg23
I59
sg24
I0
sbssg25
S'\xe2\xd8\xd2\x10\xaf{\xe9/\x95q\x8f\xce\x03\xbd\x9c\x8c'
p559
ssS'_home_vanya_Projects_3course_arch1_lib_python2_7_site-packages_requests___init__'
p560
(dp561
g6
(dp562
g8
S'_home_vanya_Projects_3course_arch1_lib_python2_7_site-packages_requests___init__.html'
p563
sg10
S'/home/vanya/Projects/3course/arch1/lib/python2.7/site-packages/requests/__init__'
p564
sg12
g13
(g14
g15
NtRp565
(dp566
g18
I1
sg19
I0
sg20
I26
sg21
I0
sg22
I0
sg23
I5
sg24
I0
sbssg25
S'\x13v\x84\xe4\x835\xfe\xae\x0c\x8c\x88IZ.]\x07'
p567
ssS'_home_vanya_Projects_3course_arch1_lib_python2_7_site-packages_gevent_threadpool'
p568
(dp569
g6
(dp570
g8
S'_home_vanya_Projects_3course_arch1_lib_python2_7_site-packages_gevent_threadpool.html'
p571
sg10
S'/home/vanya/Projects/3course/arch1/lib/python2.7/site-packages/gevent/threadpool'
p572
sg12
g13
(g14
g15
NtRp573
(dp574
g18
I1
sg19
I0
sg20
I238
sg21
I0
sg22
I0
sg23
I121
sg24
I0
sbssg25
S'\x07%\xf3\xc6\x01\xb3\xfc\xa6\xc9\x84\xb2\xe6uQ\x90\xcb'
p575
sssS'version'
p576
S'3.7.1'
p577
sS'settings'
p578
S'\x98\xa8x\xfe"r\xb5K\x98\xb1N\\\x99\x9e\xf3\xe5'
p579
sS'format'
p580
I1
s.